target datalayout = "e-m:e-p270:32:32-p271:32:32-p272:64:64-i64:64-i128:128-f80:128-n8:16:32:64-S128"
target triple = "x86_64-pc-linux-gnu"

%struct.pmix_mca_base_component_2_1_0_t = type { i32, i32, i32, [16 x i8], i32, i32, i32, [32 x i8], i32, i32, i32, [64 x i8], i32, i32, i32, ptr, ptr, ptr, ptr, [32 x i8] }
%struct.prte_process_info_t = type { %struct.pmix_proc, %struct.pmix_proc, ptr, %struct.pmix_proc, i32, i32, i32, ptr, ptr, i32, i8, ptr, i16, ptr, ptr, i8, ptr, i8 }
%struct.pmix_proc = type { [256 x i8], i32 }
%struct.prte_errmgr_base_module_2_3_0_t = type { ptr, ptr, ptr }

@.str = private unnamed_addr constant [42 x i8] c"PRTE ERRMGR prted MCA component version 0\00", align 1
@prte_mca_errmgr_prted_component_version_string = global ptr @.str, align 8
@prte_mca_errmgr_prted_component = global { %struct.pmix_mca_base_component_2_1_0_t, i32, i32, i32, [4 x i8] } { %struct.pmix_mca_base_component_2_1_0_t { i32 2, i32 1, i32 0, [16 x i8] c"prte\00\00\00\00\00\00\00\00\00\00\00\00", i32 4, i32 0, i32 0, [32 x i8] c"errmgr\00\00\00\00\00\00\00\00\00\00\00\00\00\00\00\00\00\00\00\00\00\00\00\00\00\00", i32 3, i32 0, i32 0, [64 x i8] c"prted\00\00\00\00\00\00\00\00\00\00\00\00\00\00\00\00\00\00\00\00\00\00\00\00\00\00\00\00\00\00\00\00\00\00\00\00\00\00\00\00\00\00\00\00\00\00\00\00\00\00\00\00\00\00\00\00\00\00\00", i32 4, i32 0, i32 0, ptr @errmgr_prted_open, ptr @errmgr_prted_close, ptr @errmgr_prted_component_query, ptr @errmgr_prted_register, [32 x i8] zeroinitializer }, i32 0, i32 0, i32 0, [4 x i8] zeroinitializer }, align 8
@my_priority = internal global i32 0, align 4
@.str.1 = private unnamed_addr constant [9 x i8] c"priority\00", align 1
@.str.2 = private unnamed_addr constant [39 x i8] c"Priority of the prted errmgr component\00", align 1
@prte_process_info = external global %struct.prte_process_info_t, align 8
@prte_errmgr_prted_module = external global %struct.prte_errmgr_base_module_2_3_0_t, align 8

; Function Attrs: nounwind uwtable
define internal i32 @errmgr_prted_open() #0 {
  ret i32 0
}

; Function Attrs: nounwind uwtable
define internal i32 @errmgr_prted_close() #0 {
  ret i32 0
}

; Function Attrs: nounwind uwtable
define internal i32 @errmgr_prted_component_query(ptr noundef %0, ptr noundef %1) #0 {
  %3 = alloca i32, align 4
  %4 = alloca ptr, align 8
  %5 = alloca ptr, align 8
  store ptr %0, ptr %4, align 8, !tbaa !3
  store ptr %1, ptr %5, align 8, !tbaa !8
  %6 = load i8, ptr getelementptr inbounds nuw (%struct.prte_process_info_t, ptr @prte_process_info, i32 0, i32 10), align 4, !tbaa !10
  %7 = zext i8 %6 to i32
  %8 = and i32 2, %7
  %9 = icmp ne i32 %8, 0
  br i1 %9, label %10, label %14

10:                                               ; preds = %2
  %11 = load i32, ptr @my_priority, align 4, !tbaa !18
  %12 = load ptr, ptr %5, align 8, !tbaa !8
  store i32 %11, ptr %12, align 4, !tbaa !18
  %13 = load ptr, ptr %4, align 8, !tbaa !3
  store ptr @prte_errmgr_prted_module, ptr %13, align 8, !tbaa !19
  store i32 0, ptr %3, align 4
  br label %17

14:                                               ; preds = %2
  %15 = load ptr, ptr %5, align 8, !tbaa !8
  store i32 -1, ptr %15, align 4, !tbaa !18
  %16 = load ptr, ptr %4, align 8, !tbaa !3
  store ptr null, ptr %16, align 8, !tbaa !19
  store i32 -1, ptr %3, align 4
  br label %17

17:                                               ; preds = %14, %10
  %18 = load i32, ptr %3, align 4
  ret i32 %18
}

; Function Attrs: nounwind uwtable
define internal i32 @errmgr_prted_register() #0 {
  %1 = alloca ptr, align 8
  call void @llvm.lifetime.start.p0(i64 8, ptr %1) #3
  store ptr @prte_mca_errmgr_prted_component, ptr %1, align 8, !tbaa !21
  store i32 1000, ptr @my_priority, align 4, !tbaa !18
  %2 = load ptr, ptr %1, align 8, !tbaa !21
  %3 = call i32 @pmix_mca_base_component_var_register(ptr noundef %2, ptr noundef @.str.1, ptr noundef @.str.2, i32 noundef 0, ptr noundef @my_priority)
  call void @llvm.lifetime.end.p0(i64 8, ptr %1) #3
  ret i32 0
}

; Function Attrs: nocallback nofree nosync nounwind willreturn memory(argmem: readwrite)
declare void @llvm.lifetime.start.p0(i64 immarg, ptr captures(none)) #1

declare i32 @pmix_mca_base_component_var_register(ptr noundef, ptr noundef, ptr noundef, i32 noundef, ptr noundef) #2

; Function Attrs: nocallback nofree nosync nounwind willreturn memory(argmem: readwrite)
declare void @llvm.lifetime.end.p0(i64 immarg, ptr captures(none)) #1


!llvm.module.flags = !{!0, !1, !2}

!0 = !{i32 1, !"wchar_size", i32 4}
!1 = !{i32 8, !"PIC Level", i32 2}
!2 = !{i32 7, !"uwtable", i32 2}
!3 = !{!4, !4, i64 0}
!4 = !{!"p2 _ZTS28pmix_mca_base_module_2_0_0_t", !5, i64 0}
!5 = !{!"any pointer", !6, i64 0}
!6 = !{!"omnipotent char", !7, i64 0}
!7 = !{!"Simple C/C++ TBAA"}
!8 = !{!9, !9, i64 0}
!9 = !{!"p1 int", !5, i64 0}
!10 = !{!11, !6, i64 820}
!11 = !{!"prte_process_info_t", !12, i64 0, !12, i64 260, !14, i64 520, !12, i64 528, !13, i64 788, !13, i64 792, !13, i64 796, !14, i64 800, !15, i64 808, !13, i64 816, !6, i64 820, !14, i64 824, !16, i64 832, !14, i64 840, !14, i64 848, !17, i64 856, !14, i64 864, !17, i64 872}
!12 = !{!"pmix_proc", !6, i64 0, !13, i64 256}
!13 = !{!"int", !6, i64 0}
!14 = !{!"p1 omnipotent char", !5, i64 0}
!15 = !{!"p2 omnipotent char", !5, i64 0}
!16 = !{!"short", !6, i64 0}
!17 = !{!"_Bool", !6, i64 0}
!18 = !{!13, !13, i64 0}
!19 = !{!20, !20, i64 0}
!20 = !{!"p1 _ZTS28pmix_mca_base_module_2_0_0_t", !5, i64 0}
!21 = !{!22, !22, i64 0}
!22 = !{!"p1 _ZTS31pmix_mca_base_component_2_1_0_t", !5, i64 0}
